; ModuleID = '19/1184.c'
source_filename = "19/1184.c"
target datalayout = "e-m:e-p270:32:32-p271:32:32-p272:64:64-i64:64-f80:128-n8:16:32:64-S128"
target triple = "x86_64-pc-linux-gnu"

@.str = private unnamed_addr constant [4 x i8] c"%s \00", align 1
@.str.1 = private unnamed_addr constant [3 x i8] c"%s\00", align 1

; Function Attrs: noinline nounwind uwtable
define dso_local void @main() #0 {
  %1 = alloca i32, align 4
  %2 = alloca i32, align 4
  %3 = alloca i32, align 4
  %4 = alloca i32, align 4
  %5 = alloca i32, align 4
  %6 = alloca [100 x i8], align 16
  %7 = alloca [100 x i8], align 16
  %8 = alloca [100 x i8], align 16
  %9 = alloca i8**, align 8
  store i32 0, i32* %5, align 4
  %10 = getelementptr inbounds [100 x i8], [100 x i8]* %6, i64 0, i64 0
  %11 = call i32 (i8*, ...) bitcast (i32 (...)* @gets to i32 (i8*, ...)*)(i8* %10)
  %12 = getelementptr inbounds [100 x i8], [100 x i8]* %7, i64 0, i64 0
  %13 = call i32 (i8*, ...) bitcast (i32 (...)* @gets to i32 (i8*, ...)*)(i8* %12)
  %14 = getelementptr inbounds [100 x i8], [100 x i8]* %8, i64 0, i64 0
  %15 = call i32 (i8*, ...) bitcast (i32 (...)* @gets to i32 (i8*, ...)*)(i8* %14)
  %16 = getelementptr inbounds [100 x i8], [100 x i8]* %6, i64 0, i64 0
  %17 = call i64 @strlen(i8* %16) #4
  %18 = trunc i64 %17 to i32
  store i32 %18, i32* %3, align 4
  %19 = call noalias i8* @malloc(i64 4000) #5
  %20 = bitcast i8* %19 to i8**
  store i8** %20, i8*** %9, align 8
  store i32 0, i32* %1, align 4
  br label %21

21:                                               ; preds = %30, %0
  %22 = load i32, i32* %1, align 4
  %23 = icmp sle i32 %22, 499
  br i1 %23, label %24, label %33

24:                                               ; preds = %21
  %25 = call noalias i8* @malloc(i64 500) #5
  %26 = load i8**, i8*** %9, align 8
  %27 = load i32, i32* %1, align 4
  %28 = sext i32 %27 to i64
  %29 = getelementptr inbounds i8*, i8** %26, i64 %28
  store i8* %25, i8** %29, align 8
  br label %30

30:                                               ; preds = %24
  %31 = load i32, i32* %1, align 4
  %32 = add nsw i32 %31, 1
  store i32 %32, i32* %1, align 4
  br label %21

33:                                               ; preds = %21
  store i32 0, i32* %4, align 4
  store i32 0, i32* %1, align 4
  br label %34

34:                                               ; preds = %95, %33
  %35 = load i32, i32* %4, align 4
  %36 = load i32, i32* %3, align 4
  %37 = sub nsw i32 %36, 1
  %38 = icmp sle i32 %35, %37
  br i1 %38, label %39, label %42

39:                                               ; preds = %34
  %40 = load i32, i32* %1, align 4
  %41 = icmp sle i32 %40, 499
  br label %42

42:                                               ; preds = %39, %34
  %43 = phi i1 [ false, %34 ], [ %41, %39 ]
  br i1 %43, label %44, label %98

44:                                               ; preds = %42
  store i32 0, i32* %2, align 4
  br label %45

45:                                               ; preds = %91, %44
  %46 = load i32, i32* %2, align 4
  %47 = icmp sle i32 %46, 499
  br i1 %47, label %48, label %94

48:                                               ; preds = %45
  %49 = load i32, i32* %4, align 4
  %50 = sext i32 %49 to i64
  %51 = getelementptr inbounds [100 x i8], [100 x i8]* %6, i64 0, i64 %50
  %52 = load i8, i8* %51, align 1
  %53 = sext i8 %52 to i32
  %54 = icmp ne i32 %53, 32
  br i1 %54, label %55, label %77

55:                                               ; preds = %48
  %56 = load i32, i32* %4, align 4
  %57 = sext i32 %56 to i64
  %58 = getelementptr inbounds [100 x i8], [100 x i8]* %6, i64 0, i64 %57
  %59 = load i8, i8* %58, align 1
  %60 = sext i8 %59 to i32
  %61 = icmp ne i32 %60, 0
  br i1 %61, label %62, label %77

62:                                               ; preds = %55
  %63 = load i32, i32* %4, align 4
  %64 = sext i32 %63 to i64
  %65 = getelementptr inbounds [100 x i8], [100 x i8]* %6, i64 0, i64 %64
  %66 = load i8, i8* %65, align 1
  %67 = load i8**, i8*** %9, align 8
  %68 = load i32, i32* %1, align 4
  %69 = sext i32 %68 to i64
  %70 = getelementptr inbounds i8*, i8** %67, i64 %69
  %71 = load i8*, i8** %70, align 8
  %72 = load i32, i32* %2, align 4
  %73 = sext i32 %72 to i64
  %74 = getelementptr inbounds i8, i8* %71, i64 %73
  store i8 %66, i8* %74, align 1
  %75 = load i32, i32* %4, align 4
  %76 = add nsw i32 %75, 1
  store i32 %76, i32* %4, align 4
  br label %90

77:                                               ; preds = %55, %48
  %78 = load i32, i32* %4, align 4
  %79 = add nsw i32 %78, 1
  store i32 %79, i32* %4, align 4
  %80 = load i8**, i8*** %9, align 8
  %81 = load i32, i32* %1, align 4
  %82 = sext i32 %81 to i64
  %83 = getelementptr inbounds i8*, i8** %80, i64 %82
  %84 = load i8*, i8** %83, align 8
  %85 = load i32, i32* %2, align 4
  %86 = sext i32 %85 to i64
  %87 = getelementptr inbounds i8, i8* %84, i64 %86
  store i8 0, i8* %87, align 1
  %88 = load i32, i32* %5, align 4
  %89 = add nsw i32 %88, 1
  store i32 %89, i32* %5, align 4
  br label %94

90:                                               ; preds = %62
  br label %91

91:                                               ; preds = %90
  %92 = load i32, i32* %2, align 4
  %93 = add nsw i32 %92, 1
  store i32 %93, i32* %2, align 4
  br label %45

94:                                               ; preds = %77, %45
  br label %95

95:                                               ; preds = %94
  %96 = load i32, i32* %1, align 4
  %97 = add nsw i32 %96, 1
  store i32 %97, i32* %1, align 4
  br label %34

98:                                               ; preds = %42
  store i32 0, i32* %1, align 4
  br label %99

99:                                               ; preds = %122, %98
  %100 = load i32, i32* %1, align 4
  %101 = load i32, i32* %5, align 4
  %102 = sub nsw i32 %101, 1
  %103 = icmp sle i32 %100, %102
  br i1 %103, label %104, label %125

104:                                              ; preds = %99
  %105 = load i8**, i8*** %9, align 8
  %106 = load i32, i32* %1, align 4
  %107 = sext i32 %106 to i64
  %108 = getelementptr inbounds i8*, i8** %105, i64 %107
  %109 = load i8*, i8** %108, align 8
  %110 = getelementptr inbounds [100 x i8], [100 x i8]* %7, i64 0, i64 0
  %111 = call i32 @strcmp(i8* %109, i8* %110) #4
  %112 = icmp eq i32 %111, 0
  br i1 %112, label %113, label %121

113:                                              ; preds = %104
  %114 = load i8**, i8*** %9, align 8
  %115 = load i32, i32* %1, align 4
  %116 = sext i32 %115 to i64
  %117 = getelementptr inbounds i8*, i8** %114, i64 %116
  %118 = load i8*, i8** %117, align 8
  %119 = getelementptr inbounds [100 x i8], [100 x i8]* %8, i64 0, i64 0
  %120 = call i8* @strcpy(i8* %118, i8* %119) #5
  br label %121

121:                                              ; preds = %113, %104
  br label %122

122:                                              ; preds = %121
  %123 = load i32, i32* %1, align 4
  %124 = add nsw i32 %123, 1
  store i32 %124, i32* %1, align 4
  br label %99

125:                                              ; preds = %99
  store i32 0, i32* %1, align 4
  br label %126

126:                                              ; preds = %138, %125
  %127 = load i32, i32* %1, align 4
  %128 = load i32, i32* %5, align 4
  %129 = sub nsw i32 %128, 2
  %130 = icmp sle i32 %127, %129
  br i1 %130, label %131, label %141

131:                                              ; preds = %126
  %132 = load i8**, i8*** %9, align 8
  %133 = load i32, i32* %1, align 4
  %134 = sext i32 %133 to i64
  %135 = getelementptr inbounds i8*, i8** %132, i64 %134
  %136 = load i8*, i8** %135, align 8
  %137 = call i32 (i8*, ...) @printf(i8* getelementptr inbounds ([4 x i8], [4 x i8]* @.str, i64 0, i64 0), i8* %136)
  br label %138

138:                                              ; preds = %131
  %139 = load i32, i32* %1, align 4
  %140 = add nsw i32 %139, 1
  store i32 %140, i32* %1, align 4
  br label %126

141:                                              ; preds = %126
  %142 = load i8**, i8*** %9, align 8
  %143 = load i32, i32* %5, align 4
  %144 = sub nsw i32 %143, 1
  %145 = sext i32 %144 to i64
  %146 = getelementptr inbounds i8*, i8** %142, i64 %145
  %147 = load i8*, i8** %146, align 8
  %148 = call i32 (i8*, ...) @printf(i8* getelementptr inbounds ([3 x i8], [3 x i8]* @.str.1, i64 0, i64 0), i8* %147)
  ret void
}

declare dso_local i32 @gets(...) #1

; Function Attrs: nounwind readonly
declare dso_local i64 @strlen(i8*) #2

; Function Attrs: nounwind
declare dso_local noalias i8* @malloc(i64) #3

; Function Attrs: nounwind readonly
declare dso_local i32 @strcmp(i8*, i8*) #2

; Function Attrs: nounwind
declare dso_local i8* @strcpy(i8*, i8*) #3

declare dso_local i32 @printf(i8*, ...) #1


!llvm.module.flags = !{!0}
!llvm.ident = !{!1}

!0 = !{i32 1, !"wchar_size", i32 4}
!1 = !{!"clang version 10.0.0-4ubuntu1 "}
